; Function Attrs: mustprogress nounwind uwtable
define hidden void @_ZN7Imf_3_215Pxr24CompressorD2Ev(ptr noundef nonnull align 8 dereferenceable(60) %this) unnamed_addr #5 align 2 {
entry:
  store ptr getelementptr inbounds ({ [10 x ptr] }, ptr @_ZTVN7Imf_3_215Pxr24CompressorE, i64 0, i32 0, i64 2), ptr %this, align 8
  %_tmpBuffer = getelementptr inbounds i8, ptr %this, i64 24
  %0 = load ptr, ptr %_tmpBuffer, align 8
  %isnull = icmp eq ptr %0, null
  br i1 %isnull, label %delete.end, label %delete.notnull

delete.notnull:                                   ; preds = %entry
  tail call void @_ZdaPv(ptr noundef nonnull %0) #16
  br label %delete.end

delete.end:                                       ; preds = %delete.notnull, %entry
  %_outBuffer = getelementptr inbounds i8, ptr %this, i64 32
  %1 = load ptr, ptr %_outBuffer, align 8
  %isnull2 = icmp eq ptr %1, null
  br i1 %isnull2, label %delete.end4, label %delete.notnull3

delete.notnull3:                                  ; preds = %delete.end
  tail call void @_ZdaPv(ptr noundef nonnull %1) #16
  br label %delete.end4

delete.end4:                                      ; preds = %delete.notnull3, %delete.end
  tail call void @_ZN7Imf_3_210CompressorD2Ev(ptr noundef nonnull align 8 dereferenceable(16) %this) #13
  ret void
}